target datalayout = "e-m:e-p270:32:32-p271:32:32-p272:64:64-i64:64-i128:128-f80:128-n8:16:32:64-S128"
target triple = "x86_64-pc-linux-gnu"

%class.anon = type { i8 }
%"class.rc::Seq.129" = type { %"class.std::unique_ptr.130" }
%"class.std::unique_ptr.130" = type { %"struct.std::__uniq_ptr_data.131" }
%"struct.std::__uniq_ptr_data.131" = type { %"class.std::__uniq_ptr_impl.132" }
%"class.std::__uniq_ptr_impl.132" = type { %"class.std::tuple.133" }
%"class.std::tuple.133" = type { %"struct.std::_Tuple_impl.134" }
%"struct.std::_Tuple_impl.134" = type { %"struct.std::_Head_base.137" }
%"struct.std::_Head_base.137" = type { ptr }
%class.anon.138 = type { %class.anon }
%"class.rc::Seq<rc::Shrinkable<std::__cxx11::basic_string<char>>>::SeqImpl" = type { %"class.rc::Seq<rc::Shrinkable<std::__cxx11::basic_string<char>>>::ISeqImpl", %"class.rc::seq::detail::MapSeq.139" }
%"class.rc::Seq<rc::Shrinkable<std::__cxx11::basic_string<char>>>::ISeqImpl" = type { ptr }
%"class.rc::seq::detail::MapSeq.139" = type { %class.anon.138, %"class.rc::Seq.129" }

; Function Attrs: mustprogress nounwind uwtable
define linkonce_odr noundef nonnull align 1 dereferenceable(1) ptr @_ZNSt10_Head_baseILm1ESt14default_deleteIN2rc3SeqINS1_10ShrinkableIN3nix13StorePathNameEEEE8ISeqImplEELb1EE7_M_headERSA_(ptr noundef nonnull align 1 dereferenceable(1) %0) #5 comdat align 2 {
  %2 = alloca ptr, align 8
  store ptr %0, ptr %2, align 8
  %3 = load ptr, ptr %2, align 8
  ret ptr %3
}

; Function Attrs: mustprogress nounwind uwtable
define linkonce_odr noundef nonnull align 1 dereferenceable(1) ptr @_ZNSt11_Tuple_implILm1EJSt14default_deleteIN2rc3SeqINS1_10ShrinkableIN3nix13StorePathNameEEEE8ISeqImplEEEE7_M_headERSA_(ptr noundef nonnull align 1 dereferenceable(1) %0) #5 comdat align 2 {
  %2 = alloca ptr, align 8
  store ptr %0, ptr %2, align 8
  %3 = load ptr, ptr %2, align 8
  %4 = call noundef nonnull align 1 dereferenceable(1) ptr @_ZNSt10_Head_baseILm1ESt14default_deleteIN2rc3SeqINS1_10ShrinkableIN3nix13StorePathNameEEEE8ISeqImplEELb1EE7_M_headERSA_(ptr noundef nonnull align 1 dereferenceable(1) %3) #3
  ret ptr %4
}

; Function Attrs: mustprogress nounwind uwtable
define linkonce_odr noundef nonnull align 8 dereferenceable(8) ptr @_ZNSt10_Head_baseILm0EPN2rc3SeqINS0_10ShrinkableIN3nix13StorePathNameEEEE8ISeqImplELb0EE7_M_headERS9_(ptr noundef nonnull align 8 dereferenceable(8) %0) #5 comdat align 2 {
  %2 = alloca ptr, align 8
  store ptr %0, ptr %2, align 8
  %3 = load ptr, ptr %2, align 8
  %4 = getelementptr inbounds %"struct.std::_Head_base.137", ptr %3, i32 0, i32 0
  ret ptr %4
}

; Function Attrs: mustprogress nounwind uwtable
define linkonce_odr noundef nonnull align 1 dereferenceable(1) ptr @_ZSt12__get_helperILm1ESt14default_deleteIN2rc3SeqINS1_10ShrinkableIN3nix13StorePathNameEEEE8ISeqImplEEJEERT0_RSt11_Tuple_implIXT_EJSA_DpT1_EE(ptr noundef nonnull align 1 dereferenceable(1) %0) #5 comdat {
  %2 = alloca ptr, align 8
  store ptr %0, ptr %2, align 8
  %3 = load ptr, ptr %2, align 8
  %4 = call noundef nonnull align 1 dereferenceable(1) ptr @_ZNSt11_Tuple_implILm1EJSt14default_deleteIN2rc3SeqINS1_10ShrinkableIN3nix13StorePathNameEEEE8ISeqImplEEEE7_M_headERSA_(ptr noundef nonnull align 1 dereferenceable(1) %3) #3
  ret ptr %4
}

; Function Attrs: mustprogress nounwind uwtable
define linkonce_odr noundef nonnull align 8 dereferenceable(8) ptr @_ZNSt11_Tuple_implILm0EJPN2rc3SeqINS0_10ShrinkableIN3nix13StorePathNameEEEE8ISeqImplESt14default_deleteIS7_EEE7_M_headERSB_(ptr noundef nonnull align 8 dereferenceable(8) %0) #5 comdat align 2 {
  %2 = alloca ptr, align 8
  store ptr %0, ptr %2, align 8
  %3 = load ptr, ptr %2, align 8
  %4 = call noundef nonnull align 8 dereferenceable(8) ptr @_ZNSt10_Head_baseILm0EPN2rc3SeqINS0_10ShrinkableIN3nix13StorePathNameEEEE8ISeqImplELb0EE7_M_headERS9_(ptr noundef nonnull align 8 dereferenceable(8) %3) #3
  ret ptr %4
}

; Function Attrs: mustprogress nounwind uwtable
define linkonce_odr noundef nonnull align 1 dereferenceable(1) ptr @_ZSt3getILm1EJPN2rc3SeqINS0_10ShrinkableIN3nix13StorePathNameEEEE8ISeqImplESt14default_deleteIS7_EEERNSt13tuple_elementIXT_ESt5tupleIJDpT0_EEE4typeERSF_(ptr noundef nonnull align 8 dereferenceable(8) %0) #5 comdat {
  %2 = alloca ptr, align 8
  store ptr %0, ptr %2, align 8
  %3 = load ptr, ptr %2, align 8
  %4 = call noundef nonnull align 1 dereferenceable(1) ptr @_ZSt12__get_helperILm1ESt14default_deleteIN2rc3SeqINS1_10ShrinkableIN3nix13StorePathNameEEEE8ISeqImplEEJEERT0_RSt11_Tuple_implIXT_EJSA_DpT1_EE(ptr noundef nonnull align 1 dereferenceable(1) %3) #3
  ret ptr %4
}

; Function Attrs: mustprogress nounwind uwtable
define linkonce_odr noundef nonnull align 8 dereferenceable(8) ptr @_ZSt12__get_helperILm0EPN2rc3SeqINS0_10ShrinkableIN3nix13StorePathNameEEEE8ISeqImplEJSt14default_deleteIS7_EEERT0_RSt11_Tuple_implIXT_EJSB_DpT1_EE(ptr noundef nonnull align 8 dereferenceable(8) %0) #5 comdat {
  %2 = alloca ptr, align 8
  store ptr %0, ptr %2, align 8
  %3 = load ptr, ptr %2, align 8
  %4 = call noundef nonnull align 8 dereferenceable(8) ptr @_ZNSt11_Tuple_implILm0EJPN2rc3SeqINS0_10ShrinkableIN3nix13StorePathNameEEEE8ISeqImplESt14default_deleteIS7_EEE7_M_headERSB_(ptr noundef nonnull align 8 dereferenceable(8) %3) #3
  ret ptr %4
}

; Function Attrs: mustprogress nounwind uwtable
define linkonce_odr noundef nonnull align 1 dereferenceable(1) ptr @_ZNSt15__uniq_ptr_implIN2rc3SeqINS0_10ShrinkableIN3nix13StorePathNameEEEE8ISeqImplESt14default_deleteIS7_EE10_M_deleterEv(ptr noundef nonnull align 8 dereferenceable(8) %0) #5 comdat align 2 {
  %2 = alloca ptr, align 8
  store ptr %0, ptr %2, align 8
  %3 = load ptr, ptr %2, align 8
  %4 = getelementptr inbounds %"class.std::__uniq_ptr_impl.132", ptr %3, i32 0, i32 0
  %5 = call noundef nonnull align 1 dereferenceable(1) ptr @_ZSt3getILm1EJPN2rc3SeqINS0_10ShrinkableIN3nix13StorePathNameEEEE8ISeqImplESt14default_deleteIS7_EEERNSt13tuple_elementIXT_ESt5tupleIJDpT0_EEE4typeERSF_(ptr noundef nonnull align 8 dereferenceable(8) %4) #3
  ret ptr %5
}

; Function Attrs: mustprogress nounwind uwtable
define linkonce_odr noundef nonnull align 8 dereferenceable(8) ptr @_ZSt3getILm0EJPN2rc3SeqINS0_10ShrinkableIN3nix13StorePathNameEEEE8ISeqImplESt14default_deleteIS7_EEERNSt13tuple_elementIXT_ESt5tupleIJDpT0_EEE4typeERSF_(ptr noundef nonnull align 8 dereferenceable(8) %0) #5 comdat {
  %2 = alloca ptr, align 8
  store ptr %0, ptr %2, align 8
  %3 = load ptr, ptr %2, align 8
  %4 = call noundef nonnull align 8 dereferenceable(8) ptr @_ZSt12__get_helperILm0EPN2rc3SeqINS0_10ShrinkableIN3nix13StorePathNameEEEE8ISeqImplEJSt14default_deleteIS7_EEERT0_RSt11_Tuple_implIXT_EJSB_DpT1_EE(ptr noundef nonnull align 8 dereferenceable(8) %3) #3
  ret ptr %4
}

; Function Attrs: mustprogress nounwind uwtable
define linkonce_odr void @_ZNKSt14default_deleteIN2rc3SeqINS0_10ShrinkableIN3nix13StorePathNameEEEE8ISeqImplEEclEPS7_(ptr noundef nonnull align 1 dereferenceable(1) %0, ptr noundef %1) #5 comdat align 2 {
  %3 = alloca ptr, align 8
  %4 = alloca ptr, align 8
  store ptr %0, ptr %3, align 8
  store ptr %1, ptr %4, align 8
  %5 = load ptr, ptr %4, align 8
  %6 = icmp eq ptr %5, null
  br i1 %6, label %11, label %7

7:                                                ; preds = %2
  %8 = load ptr, ptr %5, align 8
  %9 = getelementptr inbounds ptr, ptr %8, i64 3
  %10 = load ptr, ptr %9, align 8
  call void %10(ptr noundef nonnull align 8 dereferenceable(8) %5) #3
  br label %11

11:                                               ; preds = %7, %2
  ret void
}

; Function Attrs: mustprogress nounwind uwtable
define linkonce_odr noundef nonnull align 1 dereferenceable(1) ptr @_ZNSt10unique_ptrIN2rc3SeqINS0_10ShrinkableIN3nix13StorePathNameEEEE8ISeqImplESt14default_deleteIS7_EE11get_deleterEv(ptr noundef nonnull align 8 dereferenceable(8) %0) #5 comdat align 2 {
  %2 = alloca ptr, align 8
  store ptr %0, ptr %2, align 8
  %3 = load ptr, ptr %2, align 8
  %4 = getelementptr inbounds %"class.std::unique_ptr.130", ptr %3, i32 0, i32 0
  %5 = call noundef nonnull align 1 dereferenceable(1) ptr @_ZNSt15__uniq_ptr_implIN2rc3SeqINS0_10ShrinkableIN3nix13StorePathNameEEEE8ISeqImplESt14default_deleteIS7_EE10_M_deleterEv(ptr noundef nonnull align 8 dereferenceable(8) %4) #3
  ret ptr %5
}

; Function Attrs: mustprogress nounwind uwtable
define linkonce_odr noundef nonnull align 8 dereferenceable(8) ptr @_ZNSt15__uniq_ptr_implIN2rc3SeqINS0_10ShrinkableIN3nix13StorePathNameEEEE8ISeqImplESt14default_deleteIS7_EE6_M_ptrEv(ptr noundef nonnull align 8 dereferenceable(8) %0) #5 comdat align 2 {
  %2 = alloca ptr, align 8
  store ptr %0, ptr %2, align 8
  %3 = load ptr, ptr %2, align 8
  %4 = getelementptr inbounds %"class.std::__uniq_ptr_impl.132", ptr %3, i32 0, i32 0
  %5 = call noundef nonnull align 8 dereferenceable(8) ptr @_ZSt3getILm0EJPN2rc3SeqINS0_10ShrinkableIN3nix13StorePathNameEEEE8ISeqImplESt14default_deleteIS7_EEERNSt13tuple_elementIXT_ESt5tupleIJDpT0_EEE4typeERSF_(ptr noundef nonnull align 8 dereferenceable(8) %4) #3
  ret ptr %5
}

; Function Attrs: mustprogress nounwind uwtable
define linkonce_odr void @_ZNSt10unique_ptrIN2rc3SeqINS0_10ShrinkableIN3nix13StorePathNameEEEE8ISeqImplESt14default_deleteIS7_EED2Ev(ptr noundef nonnull align 8 dereferenceable(8) %0) unnamed_addr #5 comdat align 2 {
  %2 = alloca ptr, align 8
  %3 = alloca ptr, align 8
  store ptr %0, ptr %2, align 8
  %4 = load ptr, ptr %2, align 8
  %5 = getelementptr inbounds %"class.std::unique_ptr.130", ptr %4, i32 0, i32 0
  %6 = call noundef nonnull align 8 dereferenceable(8) ptr @_ZNSt15__uniq_ptr_implIN2rc3SeqINS0_10ShrinkableIN3nix13StorePathNameEEEE8ISeqImplESt14default_deleteIS7_EE6_M_ptrEv(ptr noundef nonnull align 8 dereferenceable(8) %5) #3
  store ptr %6, ptr %3, align 8
  %7 = load ptr, ptr %3, align 8
  %8 = load ptr, ptr %7, align 8
  %9 = icmp ne ptr %8, null
  br i1 %9, label %10, label %14

10:                                               ; preds = %1
  %11 = call noundef nonnull align 1 dereferenceable(1) ptr @_ZNSt10unique_ptrIN2rc3SeqINS0_10ShrinkableIN3nix13StorePathNameEEEE8ISeqImplESt14default_deleteIS7_EE11get_deleterEv(ptr noundef nonnull align 8 dereferenceable(8) %4) #3
  %12 = load ptr, ptr %3, align 8
  %13 = load ptr, ptr %12, align 8
  call void @_ZNKSt14default_deleteIN2rc3SeqINS0_10ShrinkableIN3nix13StorePathNameEEEE8ISeqImplEEclEPS7_(ptr noundef nonnull align 1 dereferenceable(1) %11, ptr noundef %13)
  br label %14

14:                                               ; preds = %10, %1
  %15 = load ptr, ptr %3, align 8
  store ptr null, ptr %15, align 8
  ret void
}

; Function Attrs: mustprogress nounwind uwtable
define linkonce_odr void @_ZN2rc3SeqINS_10ShrinkableIN3nix13StorePathNameEEEED2Ev(ptr noundef nonnull align 8 dereferenceable(8) %0) unnamed_addr #5 comdat align 2 {
  %2 = alloca ptr, align 8
  store ptr %0, ptr %2, align 8
  %3 = load ptr, ptr %2, align 8
  %4 = getelementptr inbounds %"class.rc::Seq.129", ptr %3, i32 0, i32 0
  call void @_ZNSt10unique_ptrIN2rc3SeqINS0_10ShrinkableIN3nix13StorePathNameEEEE8ISeqImplESt14default_deleteIS7_EED2Ev(ptr noundef nonnull align 8 dereferenceable(8) %4) #3
  ret void
}

; Function Attrs: mustprogress nounwind uwtable
define linkonce_odr void @_ZN2rc3SeqINS_10ShrinkableINSt7__cxx1112basic_stringIcSt11char_traitsIcESaIcEEEEEE8ISeqImplD2Ev(ptr noundef nonnull align 8 dereferenceable(8) %0) unnamed_addr #5 comdat align 2 {
  %2 = alloca ptr, align 8
  store ptr %0, ptr %2, align 8
  ret void
}

; Function Attrs: mustprogress nounwind uwtable
define internal void @"_ZN2rc3seq6detail6MapSeqIZNKS_10shrinkable6detail13MapShrinkableIN3nix13StorePathNameEZNS_9ArbitraryINS6_11OutputsSpecEvE9arbitraryEvE3$_0E7shrinksB5cxx11EvEUlONS_10ShrinkableIS7_EEE_SE_ED2Ev"(ptr noundef nonnull align 8 dereferenceable(16) %0) unnamed_addr #5 align 2 {
  %2 = alloca ptr, align 8
  store ptr %0, ptr %2, align 8
  %3 = load ptr, ptr %2, align 8
  %4 = getelementptr inbounds %"class.rc::seq::detail::MapSeq.139", ptr %3, i32 0, i32 1
  call void @_ZN2rc3SeqINS_10ShrinkableIN3nix13StorePathNameEEEED2Ev(ptr noundef nonnull align 8 dereferenceable(8) %4) #3
  ret void
}

; Function Attrs: mustprogress nounwind uwtable
define internal void @"_ZN2rc3SeqINS_10ShrinkableINSt7__cxx1112basic_stringIcSt11char_traitsIcESaIcEEEEEE7SeqImplINS_3seq6detail6MapSeqIZNKS_10shrinkable6detail13MapShrinkableIN3nix13StorePathNameEZNS_9ArbitraryINSH_11OutputsSpecEvE9arbitraryEvE3$_0E7shrinksEvEUlONS1_ISI_EEE_SO_EEED2Ev"(ptr noundef nonnull align 8 dereferenceable(24) %0) unnamed_addr #5 align 2 {
  %2 = alloca ptr, align 8
  store ptr %0, ptr %2, align 8
  %3 = load ptr, ptr %2, align 8
  store ptr getelementptr inbounds ({ [6 x ptr] }, ptr @"_ZTVN2rc3SeqINS_10ShrinkableINSt7__cxx1112basic_stringIcSt11char_traitsIcESaIcEEEEEE7SeqImplINS_3seq6detail6MapSeqIZNKS_10shrinkable6detail13MapShrinkableIN3nix13StorePathNameEZNS_9ArbitraryINSH_11OutputsSpecEvE9arbitraryEvE3$_0E7shrinksEvEUlONS1_ISI_EEE_SO_EEEE", i32 0, i32 0, i32 2), ptr %3, align 8
  %4 = getelementptr inbounds %"class.rc::Seq<rc::Shrinkable<std::__cxx11::basic_string<char>>>::SeqImpl", ptr %3, i32 0, i32 1
  call void @"_ZN2rc3seq6detail6MapSeqIZNKS_10shrinkable6detail13MapShrinkableIN3nix13StorePathNameEZNS_9ArbitraryINS6_11OutputsSpecEvE9arbitraryEvE3$_0E7shrinksB5cxx11EvEUlONS_10ShrinkableIS7_EEE_SE_ED2Ev"(ptr noundef nonnull align 8 dereferenceable(16) %4) #3
  call void @_ZN2rc3SeqINS_10ShrinkableINSt7__cxx1112basic_stringIcSt11char_traitsIcESaIcEEEEEE8ISeqImplD2Ev(ptr noundef nonnull align 8 dereferenceable(8) %3) #3
  ret void
}