; Function Attrs: mustprogress nounwind uwtable
define internal void @"_ZN2rc3SeqINS_10ShrinkableINSt7__cxx1112basic_stringIcSt11char_traitsIcESaIcEEEEEE7SeqImplINS_3seq6detail6MapSeqIZNKS_10shrinkable6detail13MapShrinkableIN3nix13StorePathNameEZNS_9ArbitraryINSH_11OutputsSpecEvE9arbitraryEvE3$_0E7shrinksEvEUlONS1_ISI_EEE_SO_EEED2Ev"(ptr nocapture noundef nonnull align 8 dereferenceable(24) %0) unnamed_addr #4 align 2 {
  store ptr getelementptr inbounds ({ [6 x ptr] }, ptr @"_ZTVN2rc3SeqINS_10ShrinkableINSt7__cxx1112basic_stringIcSt11char_traitsIcESaIcEEEEEE7SeqImplINS_3seq6detail6MapSeqIZNKS_10shrinkable6detail13MapShrinkableIN3nix13StorePathNameEZNS_9ArbitraryINSH_11OutputsSpecEvE9arbitraryEvE3$_0E7shrinksEvEUlONS1_ISI_EEE_SO_EEEE", i64 0, i32 0, i64 2), ptr %0, align 8
  %2 = getelementptr inbounds i8, ptr %0, i64 16
  %3 = load ptr, ptr %2, align 8
  %.not.i.i.i = icmp eq ptr %3, null
  br i1 %.not.i.i.i, label %"_ZN2rc3seq6detail6MapSeqIZNKS_10shrinkable6detail13MapShrinkableIN3nix13StorePathNameEZNS_9ArbitraryINS6_11OutputsSpecEvE9arbitraryEvE3$_0E7shrinksB5cxx11EvEUlONS_10ShrinkableIS7_EEE_SE_ED2Ev.exit", label %_ZNKSt14default_deleteIN2rc3SeqINS0_10ShrinkableIN3nix13StorePathNameEEEE8ISeqImplEEclEPS7_.exit.i.i.i

_ZNKSt14default_deleteIN2rc3SeqINS0_10ShrinkableIN3nix13StorePathNameEEEE8ISeqImplEEclEPS7_.exit.i.i.i: ; preds = %1
  %4 = load ptr, ptr %3, align 8
  %5 = getelementptr inbounds i8, ptr %4, i64 24
  %6 = load ptr, ptr %5, align 8
  tail call void %6(ptr noundef nonnull align 8 dereferenceable(8) %3) #22
  br label %"_ZN2rc3seq6detail6MapSeqIZNKS_10shrinkable6detail13MapShrinkableIN3nix13StorePathNameEZNS_9ArbitraryINS6_11OutputsSpecEvE9arbitraryEvE3$_0E7shrinksB5cxx11EvEUlONS_10ShrinkableIS7_EEE_SE_ED2Ev.exit"

"_ZN2rc3seq6detail6MapSeqIZNKS_10shrinkable6detail13MapShrinkableIN3nix13StorePathNameEZNS_9ArbitraryINS6_11OutputsSpecEvE9arbitraryEvE3$_0E7shrinksB5cxx11EvEUlONS_10ShrinkableIS7_EEE_SE_ED2Ev.exit": ; preds = %1, %_ZNKSt14default_deleteIN2rc3SeqINS0_10ShrinkableIN3nix13StorePathNameEEEE8ISeqImplEEclEPS7_.exit.i.i.i
  store ptr null, ptr %2, align 8
  ret void
}